; Function Attrs: mustprogress norecurse uwtable
define internal fastcc noundef zeroext i1 @_ZL8_IsCloseIdEbRKN32pxrInternal_v0_24__pxrReserved__7VtValueES3_T_(ptr noundef nonnull align 8 dereferenceable(16) %0, ptr noundef nonnull align 8 dereferenceable(16) %1, double noundef %2) unnamed_addr #6 personality ptr @__gxx_personality_v0 {
  %4 = getelementptr inbounds nuw i8, ptr %0, i64 8
  %5 = load ptr, ptr %4, align 8
  %6 = ptrtoint ptr %5 to i64
  %.not.i.i = icmp eq ptr %5, null
  br i1 %.not.i.i, label %_ZNK32pxrInternal_v0_24__pxrReserved__7VtValue9IsHoldingIdEEbv.exit.thread.i, label %7

7:                                                ; preds = %3
  %8 = and i64 %6, -8
  %9 = inttoptr i64 %8 to ptr
  %10 = getelementptr inbounds nuw i8, ptr %9, i64 16
  %11 = load i32, ptr %10, align 8
  %12 = icmp eq i32 %11, 9
  br i1 %12, label %_ZNK32pxrInternal_v0_24__pxrReserved__7VtValue9IsHoldingIdEEbv.exit.thread3.i, label %13

13:                                               ; preds = %7
  %14 = and i64 %6, 4
  %.not.i.i.i = icmp eq i64 %14, 0
  br i1 %.not.i.i.i, label %_ZNK32pxrInternal_v0_24__pxrReserved__7VtValue9IsHoldingIdEEbv.exit.thread.i, label %_ZNK32pxrInternal_v0_24__pxrReserved__7VtValue9IsHoldingIdEEbv.exit.i

_ZNK32pxrInternal_v0_24__pxrReserved__7VtValue9IsHoldingIdEEbv.exit.i: ; preds = %13
  %15 = tail call noundef zeroext i1 @_ZNK32pxrInternal_v0_24__pxrReserved__7VtValue11_TypeIsImplERKSt9type_info(ptr noundef nonnull align 8 dereferenceable(16) %0, ptr noundef nonnull align 8 dereferenceable(16) @_ZTId)
  br i1 %15, label %_ZNK32pxrInternal_v0_24__pxrReserved__7VtValue9IsHoldingIdEEbv.exit._ZNK32pxrInternal_v0_24__pxrReserved__7VtValue9IsHoldingIdEEbv.exit.thread3_crit_edge.i, label %_ZNK32pxrInternal_v0_24__pxrReserved__7VtValue9IsHoldingIdEEbv.exit.thread.i

_ZNK32pxrInternal_v0_24__pxrReserved__7VtValue9IsHoldingIdEEbv.exit._ZNK32pxrInternal_v0_24__pxrReserved__7VtValue9IsHoldingIdEEbv.exit.thread3_crit_edge.i: ; preds = %_ZNK32pxrInternal_v0_24__pxrReserved__7VtValue9IsHoldingIdEEbv.exit.i
  %.pre.i = load ptr, ptr %4, align 8
  %.pre4.i = ptrtoint ptr %.pre.i to i64
  br label %_ZNK32pxrInternal_v0_24__pxrReserved__7VtValue9IsHoldingIdEEbv.exit.thread3.i

_ZNK32pxrInternal_v0_24__pxrReserved__7VtValue9IsHoldingIdEEbv.exit.thread.i: ; preds = %_ZNK32pxrInternal_v0_24__pxrReserved__7VtValue9IsHoldingIdEEbv.exit.i, %13, %3
  %16 = tail call noundef ptr @_ZNK32pxrInternal_v0_24__pxrReserved__7VtValue8_FailGetEPFNS_21Vt_DefaultValueHolderEvERKSt9type_info(ptr noundef nonnull align 8 dereferenceable(16) %0, ptr noundef nonnull @_ZN32pxrInternal_v0_24__pxrReserved__22Vt_DefaultValueFactoryIdE6InvokeEv, ptr noundef nonnull align 8 dereferenceable(16) @_ZTId)
  br label %_ZNKR32pxrInternal_v0_24__pxrReserved__7VtValue3GetIdEERKT_v.exit

_ZNK32pxrInternal_v0_24__pxrReserved__7VtValue9IsHoldingIdEEbv.exit.thread3.i: ; preds = %_ZNK32pxrInternal_v0_24__pxrReserved__7VtValue9IsHoldingIdEEbv.exit._ZNK32pxrInternal_v0_24__pxrReserved__7VtValue9IsHoldingIdEEbv.exit.thread3_crit_edge.i, %7
  %.pre-phi.i = phi i64 [ %.pre4.i, %_ZNK32pxrInternal_v0_24__pxrReserved__7VtValue9IsHoldingIdEEbv.exit._ZNK32pxrInternal_v0_24__pxrReserved__7VtValue9IsHoldingIdEEbv.exit.thread3_crit_edge.i ], [ %6, %7 ]
  %17 = and i64 %.pre-phi.i, 4
  %.not.i2.i = icmp eq i64 %17, 0
  br i1 %.not.i2.i, label %_ZNKR32pxrInternal_v0_24__pxrReserved__7VtValue3GetIdEERKT_v.exit, label %18

18:                                               ; preds = %_ZNK32pxrInternal_v0_24__pxrReserved__7VtValue9IsHoldingIdEEbv.exit.thread3.i
  %19 = and i64 %.pre-phi.i, -8
  %20 = inttoptr i64 %19 to ptr
  %21 = getelementptr inbounds nuw i8, ptr %20, i64 168
  %22 = load ptr, ptr %21, align 8
  %23 = tail call noundef ptr %22(ptr noundef nonnull align 8 dereferenceable(16) %0)
  br label %_ZNKR32pxrInternal_v0_24__pxrReserved__7VtValue3GetIdEERKT_v.exit

_ZNKR32pxrInternal_v0_24__pxrReserved__7VtValue3GetIdEERKT_v.exit: ; preds = %_ZNK32pxrInternal_v0_24__pxrReserved__7VtValue9IsHoldingIdEEbv.exit.thread.i, %_ZNK32pxrInternal_v0_24__pxrReserved__7VtValue9IsHoldingIdEEbv.exit.thread3.i, %18
  %.0.i = phi ptr [ %16, %_ZNK32pxrInternal_v0_24__pxrReserved__7VtValue9IsHoldingIdEEbv.exit.thread.i ], [ %23, %18 ], [ %0, %_ZNK32pxrInternal_v0_24__pxrReserved__7VtValue9IsHoldingIdEEbv.exit.thread3.i ]
  %24 = load double, ptr %.0.i, align 8
  %25 = getelementptr inbounds nuw i8, ptr %1, i64 8
  %26 = load ptr, ptr %25, align 8
  %27 = ptrtoint ptr %26 to i64
  %.not.i.i3 = icmp eq ptr %26, null
  br i1 %.not.i.i3, label %_ZNK32pxrInternal_v0_24__pxrReserved__7VtValue9IsHoldingIdEEbv.exit.thread.i6, label %28

28:                                               ; preds = %_ZNKR32pxrInternal_v0_24__pxrReserved__7VtValue3GetIdEERKT_v.exit
  %29 = and i64 %27, -8
  %30 = inttoptr i64 %29 to ptr
  %31 = getelementptr inbounds nuw i8, ptr %30, i64 16
  %32 = load i32, ptr %31, align 8
  %33 = icmp eq i32 %32, 9
  br i1 %33, label %_ZNK32pxrInternal_v0_24__pxrReserved__7VtValue9IsHoldingIdEEbv.exit.thread3.i11, label %34

34:                                               ; preds = %28
  %35 = and i64 %27, 4
  %.not.i.i.i4 = icmp eq i64 %35, 0
  br i1 %.not.i.i.i4, label %_ZNK32pxrInternal_v0_24__pxrReserved__7VtValue9IsHoldingIdEEbv.exit.thread.i6, label %_ZNK32pxrInternal_v0_24__pxrReserved__7VtValue9IsHoldingIdEEbv.exit.i5

_ZNK32pxrInternal_v0_24__pxrReserved__7VtValue9IsHoldingIdEEbv.exit.i5: ; preds = %34
  %36 = tail call noundef zeroext i1 @_ZNK32pxrInternal_v0_24__pxrReserved__7VtValue11_TypeIsImplERKSt9type_info(ptr noundef nonnull align 8 dereferenceable(16) %1, ptr noundef nonnull align 8 dereferenceable(16) @_ZTId)
  br i1 %36, label %_ZNK32pxrInternal_v0_24__pxrReserved__7VtValue9IsHoldingIdEEbv.exit._ZNK32pxrInternal_v0_24__pxrReserved__7VtValue9IsHoldingIdEEbv.exit.thread3_crit_edge.i8, label %_ZNK32pxrInternal_v0_24__pxrReserved__7VtValue9IsHoldingIdEEbv.exit.thread.i6

_ZNK32pxrInternal_v0_24__pxrReserved__7VtValue9IsHoldingIdEEbv.exit._ZNK32pxrInternal_v0_24__pxrReserved__7VtValue9IsHoldingIdEEbv.exit.thread3_crit_edge.i8: ; preds = %_ZNK32pxrInternal_v0_24__pxrReserved__7VtValue9IsHoldingIdEEbv.exit.i5
  %.pre.i9 = load ptr, ptr %25, align 8
  %.pre4.i10 = ptrtoint ptr %.pre.i9 to i64
  br label %_ZNK32pxrInternal_v0_24__pxrReserved__7VtValue9IsHoldingIdEEbv.exit.thread3.i11

_ZNK32pxrInternal_v0_24__pxrReserved__7VtValue9IsHoldingIdEEbv.exit.thread.i6: ; preds = %_ZNK32pxrInternal_v0_24__pxrReserved__7VtValue9IsHoldingIdEEbv.exit.i5, %34, %_ZNKR32pxrInternal_v0_24__pxrReserved__7VtValue3GetIdEERKT_v.exit
  %37 = tail call noundef ptr @_ZNK32pxrInternal_v0_24__pxrReserved__7VtValue8_FailGetEPFNS_21Vt_DefaultValueHolderEvERKSt9type_info(ptr noundef nonnull align 8 dereferenceable(16) %1, ptr noundef nonnull @_ZN32pxrInternal_v0_24__pxrReserved__22Vt_DefaultValueFactoryIdE6InvokeEv, ptr noundef nonnull align 8 dereferenceable(16) @_ZTId)
  br label %_ZNKR32pxrInternal_v0_24__pxrReserved__7VtValue3GetIdEERKT_v.exit14

_ZNK32pxrInternal_v0_24__pxrReserved__7VtValue9IsHoldingIdEEbv.exit.thread3.i11: ; preds = %_ZNK32pxrInternal_v0_24__pxrReserved__7VtValue9IsHoldingIdEEbv.exit._ZNK32pxrInternal_v0_24__pxrReserved__7VtValue9IsHoldingIdEEbv.exit.thread3_crit_edge.i8, %28
  %.pre-phi.i12 = phi i64 [ %.pre4.i10, %_ZNK32pxrInternal_v0_24__pxrReserved__7VtValue9IsHoldingIdEEbv.exit._ZNK32pxrInternal_v0_24__pxrReserved__7VtValue9IsHoldingIdEEbv.exit.thread3_crit_edge.i8 ], [ %27, %28 ]
  %38 = and i64 %.pre-phi.i12, 4
  %.not.i2.i13 = icmp eq i64 %38, 0
  br i1 %.not.i2.i13, label %_ZNKR32pxrInternal_v0_24__pxrReserved__7VtValue3GetIdEERKT_v.exit14, label %39

39:                                               ; preds = %_ZNK32pxrInternal_v0_24__pxrReserved__7VtValue9IsHoldingIdEEbv.exit.thread3.i11
  %40 = and i64 %.pre-phi.i12, -8
  %41 = inttoptr i64 %40 to ptr
  %42 = getelementptr inbounds nuw i8, ptr %41, i64 168
  %43 = load ptr, ptr %42, align 8
  %44 = tail call noundef ptr %43(ptr noundef nonnull align 8 dereferenceable(16) %1)
  br label %_ZNKR32pxrInternal_v0_24__pxrReserved__7VtValue3GetIdEERKT_v.exit14

_ZNKR32pxrInternal_v0_24__pxrReserved__7VtValue3GetIdEERKT_v.exit14: ; preds = %_ZNK32pxrInternal_v0_24__pxrReserved__7VtValue9IsHoldingIdEEbv.exit.thread.i6, %_ZNK32pxrInternal_v0_24__pxrReserved__7VtValue9IsHoldingIdEEbv.exit.thread3.i11, %39
  %.0.i7 = phi ptr [ %37, %_ZNK32pxrInternal_v0_24__pxrReserved__7VtValue9IsHoldingIdEEbv.exit.thread.i6 ], [ %44, %39 ], [ %1, %_ZNK32pxrInternal_v0_24__pxrReserved__7VtValue9IsHoldingIdEEbv.exit.thread3.i11 ]
  %45 = load double, ptr %.0.i7, align 8
  %46 = fsub double %24, %45
  %47 = tail call double @llvm.fabs.f64(double %46)
  %48 = fcmp olt double %47, %2
  ret i1 %48
}